; Function Attrs: mustprogress nofree nounwind willreturn memory(read, inaccessiblemem: none) uwtable
define noundef zeroext i1 @_ZNK4pkpy3StrneEPKc(ptr nocapture noundef nonnull readonly align 8 dereferenceable(32) %0, ptr nocapture noundef readonly %1) local_unnamed_addr #9 align 2 personality ptr @__gxx_personality_v0 {
  %3 = tail call noundef i64 @strlen(ptr noundef nonnull dereferenceable(1) %1) #23
  %4 = load i32, ptr %0, align 8
  %5 = trunc i64 %3 to i32
  %.not.i = icmp eq i32 %4, %5
  br i1 %.not.i, label %6, label %_ZNK4pkpy3StrneESt17basic_string_viewIcSt11char_traitsIcEE.exit

6:                                                ; preds = %2
  %7 = getelementptr inbounds i8, ptr %0, i64 8
  %8 = load ptr, ptr %7, align 8
  %9 = sext i32 %4 to i64
  %bcmp.i = tail call i32 @bcmp(ptr %8, ptr readonly %1, i64 %9)
  %10 = icmp ne i32 %bcmp.i, 0
  br label %_ZNK4pkpy3StrneESt17basic_string_viewIcSt11char_traitsIcEE.exit

_ZNK4pkpy3StrneESt17basic_string_viewIcSt11char_traitsIcEE.exit: ; preds = %2, %6
  %.0.i = phi i1 [ %10, %6 ], [ true, %2 ]
  ret i1 %.0.i
}